target datalayout = "e-m:e-p270:32:32-p271:32:32-p272:64:64-i64:64-i128:128-f80:128-n8:16:32:64-S128"
target triple = "x86_64-pc-linux-gnu"

%class.OopHandle = type { ptr }
%class.ClassLoaderData = type { %class.WeakHandle, %class.OopHandle, ptr, ptr, i8, i8, i8, i32, i32, %"class.ClassLoaderData::ChunkedHandleList", ptr, ptr, ptr, ptr, ptr, ptr, ptr, ptr, ptr, ptr, ptr, ptr, i64 }
%class.WeakHandle = type { ptr }
%"class.ClassLoaderData::ChunkedHandleList" = type { ptr }

; Function Attrs: mustprogress nounwind uwtable
define hidden void @_ZN15ClassLoaderData10modules_doEPFvP11ModuleEntryE(ptr noundef nonnull align 8 dereferenceable(160) %0, ptr noundef %1) #1 align 2 {
  %3 = alloca ptr, align 8
  %4 = alloca ptr, align 8
  store ptr %0, ptr %3, align 8
  store ptr %1, ptr %4, align 8
  %5 = load ptr, ptr %3, align 8
  %6 = getelementptr inbounds %class.ClassLoaderData, ptr %5, i32 0, i32 13
  %7 = load ptr, ptr %6, align 8
  %8 = icmp ne ptr %7, null
  br i1 %8, label %9, label %13

9:                                                ; preds = %2
  %10 = load ptr, ptr %4, align 8
  %11 = getelementptr inbounds %class.ClassLoaderData, ptr %5, i32 0, i32 13
  %12 = load ptr, ptr %11, align 8
  call void %10(ptr noundef %12)
  br label %13

13:                                               ; preds = %9, %2
  %14 = getelementptr inbounds %class.ClassLoaderData, ptr %5, i32 0, i32 12
  %15 = load volatile ptr, ptr %14, align 8
  %16 = icmp ne ptr %15, null
  br i1 %16, label %17, label %21

17:                                               ; preds = %13
  %18 = getelementptr inbounds %class.ClassLoaderData, ptr %5, i32 0, i32 12
  %19 = load volatile ptr, ptr %18, align 8
  %20 = load ptr, ptr %4, align 8
  call void @_ZN16ModuleEntryTable10modules_doEPFvP11ModuleEntryE(ptr noundef nonnull align 8 dereferenceable(880) %19, ptr noundef %20)
  br label %21

21:                                               ; preds = %17, %13
  ret void
}