; Function Attrs: mustprogress nounwind uwtable
define hidden void @_ZN15ClassLoaderData10modules_doEPFvP11ModuleEntryE(ptr noundef nonnull align 8 dereferenceable(160) %0, ptr noundef %1) local_unnamed_addr #0 align 2 {
  %3 = getelementptr inbounds i8, ptr %0, i64 80
  %4 = load ptr, ptr %3, align 8
  %.not = icmp eq ptr %4, null
  br i1 %.not, label %6, label %5

5:                                                ; preds = %2
  tail call void %1(ptr noundef nonnull %4) #16
  br label %6

6:                                                ; preds = %5, %2
  %7 = getelementptr inbounds i8, ptr %0, i64 72
  %8 = load volatile ptr, ptr %7, align 8
  %.not3 = icmp eq ptr %8, null
  br i1 %.not3, label %11, label %9

9:                                                ; preds = %6
  %10 = load volatile ptr, ptr %7, align 8
  tail call void @_ZN16ModuleEntryTable10modules_doEPFvP11ModuleEntryE(ptr noundef nonnull align 8 dereferenceable(880) %10, ptr noundef %1) #16
  br label %11

11:                                               ; preds = %9, %6
  ret void
}